target datalayout = "e-m:e-p270:32:32-p271:32:32-p272:64:64-i64:64-i128:128-f80:128-n8:16:32:64-S128"
target triple = "x86_64-pc-linux-gnu"

%"class.clang::QualType" = type { %"class.llvm::PointerIntPair" }
%"class.llvm::PointerIntPair" = type { %"struct.llvm::detail::PunnedPointer" }
%"struct.llvm::detail::PunnedPointer" = type { [8 x i8] }
%"class.clang::SourceLocation" = type { i32 }
%"class.llvm::PointerIntPair.48" = type { %"struct.llvm::detail::PunnedPointer.49" }
%"struct.llvm::detail::PunnedPointer.49" = type { [8 x i8] }
%"class.clang::CharUnits" = type { i64 }
%"class.clang::CodeGen::Address" = type { %"class.llvm::PointerIntPair.48", ptr, %"class.clang::CharUnits", %"class.clang::CodeGen::CGPointerAuthInfo", ptr }
%"class.clang::CodeGen::CGPointerAuthInfo" = type { i8, ptr }
%"class.(anonymous namespace)::ScalarExprEmitter" = type { ptr, ptr, i8, ptr }
%"class.clang::CodeGen::LValue" = type { i32, %union.anon.203, %union.anon.204, %"class.clang::QualType", %"class.clang::Qualifiers", i8, %"class.clang::CodeGen::LValueBaseInfo", %"struct.clang::CodeGen::TBAAAccessInfo", ptr }
%union.anon.203 = type { %"class.clang::CodeGen::Address" }
%union.anon.204 = type { ptr }
%"class.clang::Qualifiers" = type { i64 }
%"class.clang::CodeGen::LValueBaseInfo" = type { i32 }
%"struct.clang::CodeGen::TBAAAccessInfo" = type { i32, ptr, ptr, i64, i64 }
%"class.clang::CodeGen::RValue" = type <{ %union.anon.903, i8, [7 x i8] }>
%union.anon.903 = type { %"class.clang::CodeGen::Address" }
%struct.anon.904 = type { ptr, ptr }

; Function Attrs: mustprogress nounwind uwtable
define linkonce_odr hidden noundef ptr @_ZNK5clang7CodeGen6RValue12getScalarValEv(ptr noundef nonnull align 8 dereferenceable(49) %0) #0 comdat align 2 {
  %2 = alloca ptr, align 8
  store ptr %0, ptr %2, align 8
  %3 = load ptr, ptr %2, align 8
  %4 = getelementptr inbounds nuw %"class.clang::CodeGen::RValue", ptr %3, i32 0, i32 0
  %5 = getelementptr inbounds nuw %struct.anon.904, ptr %4, i32 0, i32 0
  %6 = load ptr, ptr %5, align 8
  ret ptr %6
}

; Function Attrs: mustprogress nounwind uwtable
define internal noundef ptr @_ZN12_GLOBAL__N_117ScalarExprEmitter16EmitLoadOfLValueEN5clang7CodeGen6LValueENS1_14SourceLocationE(ptr noundef nonnull align 8 dereferenceable(32) %0, ptr noundef byval(%"class.clang::CodeGen::LValue") align 8 %1, i32 %2) #0 align 2 {
  %4 = alloca %"class.clang::SourceLocation", align 4
  %5 = alloca ptr, align 8
  %6 = alloca %"class.clang::CodeGen::RValue", align 8
  %7 = alloca %"class.clang::CodeGen::LValue", align 8
  %8 = alloca %"class.clang::SourceLocation", align 4
  %9 = getelementptr inbounds nuw %"class.clang::SourceLocation", ptr %4, i32 0, i32 0
  store i32 %2, ptr %9, align 4
  store ptr %0, ptr %5, align 8
  %10 = load ptr, ptr %5, align 8
  %11 = getelementptr inbounds nuw %"class.(anonymous namespace)::ScalarExprEmitter", ptr %10, i32 0, i32 0
  %12 = load ptr, ptr %11, align 8
  call void @llvm.memcpy.p0.p0.i64(ptr align 8 %7, ptr align 8 %1, i64 136, i1 false)
  call void @llvm.memcpy.p0.p0.i64(ptr align 4 %8, ptr align 4 %4, i64 4, i1 false)
  %13 = getelementptr inbounds nuw %"class.clang::SourceLocation", ptr %8, i32 0, i32 0
  %14 = load i32, ptr %13, align 4
  call void @_ZN5clang7CodeGen15CodeGenFunction16EmitLoadOfLValueENS0_6LValueENS_14SourceLocationE(ptr dead_on_unwind writable sret(%"class.clang::CodeGen::RValue") align 8 %6, ptr noundef nonnull align 8 dereferenceable(6488) %12, ptr noundef byval(%"class.clang::CodeGen::LValue") align 8 %7, i32 %14)
  %15 = call noundef ptr @_ZNK5clang7CodeGen6RValue12getScalarValEv(ptr noundef nonnull align 8 dereferenceable(49) %6)
  ret ptr %15
}

; Function Attrs: mustprogress nounwind uwtable
define internal void @_ZN12_GLOBAL__N_117ScalarExprEmitter17EmitCheckedLValueEPKN5clang4ExprENS1_7CodeGen15CodeGenFunction13TypeCheckKindE(ptr dead_on_unwind noalias writable sret(%"class.clang::CodeGen::LValue") align 8 %0, ptr noundef nonnull align 8 dereferenceable(32) %1, ptr noundef %2, i32 noundef %3) #0 align 2 {
  %5 = alloca ptr, align 8
  %6 = alloca ptr, align 8
  %7 = alloca i32, align 4
  store ptr %1, ptr %5, align 8
  store ptr %2, ptr %6, align 8
  store i32 %3, ptr %7, align 4
  %8 = load ptr, ptr %5, align 8
  %9 = getelementptr inbounds nuw %"class.(anonymous namespace)::ScalarExprEmitter", ptr %8, i32 0, i32 0
  %10 = load ptr, ptr %9, align 8
  %11 = load ptr, ptr %6, align 8
  %12 = load i32, ptr %7, align 4
  call void @_ZN5clang7CodeGen15CodeGenFunction17EmitCheckedLValueEPKNS_4ExprENS1_13TypeCheckKindE(ptr dead_on_unwind writable sret(%"class.clang::CodeGen::LValue") align 8 %0, ptr noundef nonnull align 8 dereferenceable(6488) %10, ptr noundef %11, i32 noundef %12)
  ret void
}

; Function Attrs: mustprogress nounwind uwtable
define internal noundef ptr @_ZN12_GLOBAL__N_117ScalarExprEmitter16EmitLoadOfLValueEPKN5clang4ExprE(ptr noundef nonnull align 8 dereferenceable(32) %0, ptr noundef %1) #0 align 2 {
  %3 = alloca ptr, align 8
  %4 = alloca ptr, align 8
  %5 = alloca ptr, align 8
  %6 = alloca %"class.clang::CodeGen::LValue", align 8
  %7 = alloca %"class.clang::SourceLocation", align 4
  store ptr %0, ptr %3, align 8
  store ptr %1, ptr %4, align 8
  %8 = load ptr, ptr %3, align 8
  %9 = load ptr, ptr %4, align 8
  call void @_ZN12_GLOBAL__N_117ScalarExprEmitter17EmitCheckedLValueEPKN5clang4ExprENS1_7CodeGen15CodeGenFunction13TypeCheckKindE(ptr dead_on_unwind writable sret(%"class.clang::CodeGen::LValue") align 8 %6, ptr noundef nonnull align 8 dereferenceable(32) %8, ptr noundef %9, i32 noundef 0)
  %10 = load ptr, ptr %4, align 8
  %11 = call i32 @_ZNK5clang4Expr10getExprLocEv(ptr noundef nonnull align 8 dereferenceable(16) %10) #12
  %12 = getelementptr inbounds nuw %"class.clang::SourceLocation", ptr %7, i32 0, i32 0
  store i32 %11, ptr %12, align 4
  %13 = getelementptr inbounds nuw %"class.clang::SourceLocation", ptr %7, i32 0, i32 0
  %14 = load i32, ptr %13, align 4
  %15 = call noundef ptr @_ZN12_GLOBAL__N_117ScalarExprEmitter16EmitLoadOfLValueEN5clang7CodeGen6LValueENS1_14SourceLocationE(ptr noundef nonnull align 8 dereferenceable(32) %8, ptr noundef byval(%"class.clang::CodeGen::LValue") align 8 %6, i32 %14)
  store ptr %15, ptr %5, align 8
  %16 = load ptr, ptr %4, align 8
  %17 = load ptr, ptr %5, align 8
  call void @_ZN12_GLOBAL__N_117ScalarExprEmitter29EmitLValueAlignmentAssumptionEPKN5clang4ExprEPN4llvm5ValueE(ptr noundef nonnull align 8 dereferenceable(32) %8, ptr noundef %16, ptr noundef %17)
  %18 = load ptr, ptr %5, align 8
  ret ptr %18
}