; Function Attrs: mustprogress nounwind uwtable
define internal fastcc noundef ptr @_ZN12_GLOBAL__N_117ScalarExprEmitter16EmitLoadOfLValueEPKN5clang4ExprE(ptr noundef nonnull readonly align 8 captures(none) dereferenceable(32) %0, ptr noundef %1) unnamed_addr #0 align 2 {
  %3 = alloca %"class.clang::CodeGen::RValue", align 8
  %4 = alloca %"class.clang::CodeGen::LValue", align 8
  %.val = load ptr, ptr %0, align 8
  call void @_ZN5clang7CodeGen15CodeGenFunction17EmitCheckedLValueEPKNS_4ExprENS1_13TypeCheckKindE(ptr dead_on_unwind nonnull writable sret(%"class.clang::CodeGen::LValue") align 8 %4, ptr noundef nonnull align 8 dereferenceable(6488) %.val, ptr noundef %1, i32 noundef 0) #19
  %5 = call i32 @_ZNK5clang4Expr10getExprLocEv(ptr noundef nonnull align 8 dereferenceable(16) %1) #20
  %.val6 = load ptr, ptr %0, align 8
  call void @llvm.lifetime.start.p0(i64 56, ptr nonnull %3)
  call void @_ZN5clang7CodeGen15CodeGenFunction16EmitLoadOfLValueENS0_6LValueENS_14SourceLocationE(ptr dead_on_unwind nonnull writable sret(%"class.clang::CodeGen::RValue") align 8 %3, ptr noundef nonnull align 8 dereferenceable(6488) %.val6, ptr noundef nonnull byval(%"class.clang::CodeGen::LValue") align 8 %4, i32 %5) #19
  %6 = load ptr, ptr %3, align 8
  call void @llvm.lifetime.end.p0(i64 56, ptr nonnull %3)
  call fastcc void @_ZN12_GLOBAL__N_117ScalarExprEmitter29EmitLValueAlignmentAssumptionEPKN5clang4ExprEPN4llvm5ValueE(ptr noundef nonnull align 8 dereferenceable(32) %0, ptr noundef nonnull %1, ptr noundef %6)
  ret ptr %6
}